; Function Attrs: nounwind uwtable
define internal i32 @heap_compare_slots(i64 noundef %0, i64 noundef %1, ptr noundef readonly captures(none) %2) #0 {
  %4 = getelementptr inbounds nuw i8, ptr %2, i64 256
  %5 = load ptr, ptr %4, align 8
  %sext = shl i64 %0, 32
  %6 = ashr exact i64 %sext, 29
  %7 = getelementptr inbounds i8, ptr %5, i64 %6
  %8 = load ptr, ptr %7, align 8
  %sext50 = shl i64 %1, 32
  %9 = ashr exact i64 %sext50, 29
  %10 = getelementptr inbounds i8, ptr %5, i64 %9
  %11 = load ptr, ptr %10, align 8
  %12 = getelementptr inbounds nuw i8, ptr %2, i64 224
  %13 = load i32, ptr %12, align 8
  %14 = icmp sgt i32 %13, 0
  br i1 %14, label %.lr.ph, label %.thread46

.lr.ph:                                           ; preds = %3
  %15 = getelementptr inbounds nuw i8, ptr %2, i64 232
  %16 = getelementptr inbounds nuw i8, ptr %8, i64 6
  %17 = getelementptr inbounds nuw i8, ptr %8, i64 32
  %18 = getelementptr inbounds nuw i8, ptr %8, i64 24
  %19 = getelementptr inbounds nuw i8, ptr %11, i64 6
  %20 = getelementptr inbounds nuw i8, ptr %11, i64 32
  %21 = getelementptr inbounds nuw i8, ptr %11, i64 24
  br label %22

22:                                               ; preds = %.lr.ph, %ApplySortComparator.exit.thread
  %indvars.iv = phi i64 [ 0, %.lr.ph ], [ %indvars.iv.next, %ApplySortComparator.exit.thread ]
  %23 = load ptr, ptr %15, align 8
  %24 = getelementptr inbounds nuw %struct.SortSupportData, ptr %23, i64 %indvars.iv
  %25 = getelementptr inbounds nuw i8, ptr %24, i64 14
  %26 = load i16, ptr %25, align 2
  %27 = sext i16 %26 to i32
  %28 = load i16, ptr %16, align 2
  %29 = icmp sgt i16 %26, %28
  br i1 %29, label %slot_getsomeattrs.exit.i, label %slot_getattr.exit

slot_getsomeattrs.exit.i:                         ; preds = %22
  tail call void @slot_getsomeattrs_int(ptr noundef nonnull %8, i32 noundef range(i32 -32767, 32768) %27) #4
  br label %slot_getattr.exit

slot_getattr.exit:                                ; preds = %22, %slot_getsomeattrs.exit.i
  %30 = load ptr, ptr %17, align 8
  %31 = add nsw i32 %27, -1
  %32 = sext i32 %31 to i64
  %33 = getelementptr inbounds i8, ptr %30, i64 %32
  %34 = load i8, ptr %33, align 1, !range !4, !noundef !5
  %35 = load ptr, ptr %18, align 8
  %36 = getelementptr inbounds i64, ptr %35, i64 %32
  %37 = load i64, ptr %36, align 8
  %38 = load i16, ptr %19, align 2
  %39 = icmp sgt i16 %26, %38
  br i1 %39, label %slot_getsomeattrs.exit.i28, label %slot_getattr.exit29

slot_getsomeattrs.exit.i28:                       ; preds = %slot_getattr.exit
  tail call void @slot_getsomeattrs_int(ptr noundef nonnull %11, i32 noundef range(i32 -32767, 32768) %27) #4
  br label %slot_getattr.exit29

slot_getattr.exit29:                              ; preds = %slot_getattr.exit, %slot_getsomeattrs.exit.i28
  %40 = load ptr, ptr %20, align 8
  %41 = getelementptr inbounds i8, ptr %40, i64 %32
  %42 = load i8, ptr %41, align 1, !range !4, !noundef !5
  %43 = load ptr, ptr %21, align 8
  %44 = getelementptr inbounds i64, ptr %43, i64 %32
  %45 = load i64, ptr %44, align 8
  %46 = trunc nuw i8 %34 to i1
  %47 = trunc nuw i8 %42 to i1
  br i1 %46, label %48, label %53

48:                                               ; preds = %slot_getattr.exit29
  br i1 %47, label %ApplySortComparator.exit.thread, label %49

49:                                               ; preds = %48
  %50 = getelementptr inbounds nuw i8, ptr %24, i64 13
  %51 = load i8, ptr %50, align 1, !range !4, !noundef !5
  %52 = trunc nuw i8 %51 to i1
  br i1 %52, label %.thread46, label %ApplySortComparator.exit.thread.thread

53:                                               ; preds = %slot_getattr.exit29
  br i1 %47, label %54, label %58

54:                                               ; preds = %53
  %55 = getelementptr inbounds nuw i8, ptr %24, i64 13
  %56 = load i8, ptr %55, align 1, !range !4, !noundef !5
  %57 = trunc nuw i8 %56 to i1
  br i1 %57, label %ApplySortComparator.exit.thread.thread, label %.thread46

58:                                               ; preds = %53
  %59 = getelementptr inbounds nuw i8, ptr %24, i64 24
  %60 = load ptr, ptr %59, align 8
  %61 = tail call i32 %60(i64 noundef %37, i64 noundef %45, ptr noundef nonnull %24) #4
  %62 = getelementptr inbounds nuw i8, ptr %24, i64 12
  %63 = load i8, ptr %62, align 4, !range !4, !noundef !5
  %64 = trunc nuw i8 %63 to i1
  br i1 %64, label %65, label %ApplySortComparator.exit

65:                                               ; preds = %58
  %66 = icmp slt i32 %61, 0
  %67 = sub nsw i32 0, %61
  br i1 %66, label %ApplySortComparator.exit.thread.thread, label %ApplySortComparator.exit

ApplySortComparator.exit.thread.thread:           ; preds = %65, %49, %54
  br label %.thread46

ApplySortComparator.exit:                         ; preds = %65, %58
  %.0.i = phi i32 [ %67, %65 ], [ %61, %58 ]
  %.0.i.fr = freeze i32 %.0.i
  %.not = icmp eq i32 %.0.i.fr, 0
  br i1 %.not, label %ApplySortComparator.exit.thread, label %.thread46.loopexit.split.loop.exit53

ApplySortComparator.exit.thread:                  ; preds = %48, %ApplySortComparator.exit
  %indvars.iv.next = add nuw nsw i64 %indvars.iv, 1
  %68 = load i32, ptr %12, align 8
  %69 = sext i32 %68 to i64
  %70 = icmp slt i64 %indvars.iv.next, %69
  br i1 %70, label %22, label %.thread46, !llvm.loop !16

.thread46.loopexit.split.loop.exit53:             ; preds = %ApplySortComparator.exit
  %71 = icmp slt i32 %.0.i.fr, 0
  %72 = sub nsw i32 0, %.0.i.fr
  %..le = select i1 %71, i32 1, i32 %72
  br label %.thread46

.thread46:                                        ; preds = %ApplySortComparator.exit.thread, %.thread46.loopexit.split.loop.exit53, %3, %54, %49, %ApplySortComparator.exit.thread.thread
  %.2 = phi i32 [ -1, %ApplySortComparator.exit.thread.thread ], [ 1, %49 ], [ 1, %54 ], [ %..le, %.thread46.loopexit.split.loop.exit53 ], [ 0, %3 ], [ 0, %ApplySortComparator.exit.thread ]
  ret i32 %.2
}